target datalayout = "e-m:e-p270:32:32-p271:32:32-p272:64:64-i64:64-i128:128-f80:128-n8:16:32:64-S128"
target triple = "x86_64-unknown-linux-gnu"

%"struct.node::AssertionInfo" = type { ptr, ptr, ptr }
%"class.node::tracing::NodeTraceWriter" = type <{ %"class.node::tracing::AsyncTraceWriter", ptr, %struct.uv_async_s, %struct.uv_async_s, %"class.node::MutexBase", %"class.node::MutexBase", %"class.node::ConditionVariableBase", %"class.node::ConditionVariableBase", i32, [4 x i8], %struct.uv_fs_s, %"class.std::queue", i32, i32, i32, i32, %"class.std::__cxx11::basic_string", %"class.std::__cxx11::basic_ostringstream", %"class.std::unique_ptr", i8, [7 x i8] }>
%"class.node::tracing::AsyncTraceWriter" = type { ptr }
%struct.uv_async_s = type { ptr, ptr, i32, ptr, %struct.uv__queue, %union.anon, ptr, i32, ptr, %struct.uv__queue, i32 }
%union.anon = type { [4 x ptr] }
%struct.uv__queue = type { ptr, ptr }
%"class.node::MutexBase" = type { %union.pthread_mutex_t }
%union.pthread_mutex_t = type { %struct.__pthread_mutex_s }
%struct.__pthread_mutex_s = type { i32, i32, i32, i32, i32, i16, i16, %struct.__pthread_internal_list }
%struct.__pthread_internal_list = type { ptr, ptr }
%"class.node::ConditionVariableBase" = type { %union.pthread_cond_t }
%union.pthread_cond_t = type { %struct.__pthread_cond_s }
%struct.__pthread_cond_s = type { %union.__atomic_wide_counter, %union.__atomic_wide_counter, [2 x i32], [2 x i32], i32, i32, [2 x i32] }
%union.__atomic_wide_counter = type { i64 }
%struct.uv_fs_s = type { ptr, i32, [6 x ptr], i32, ptr, ptr, i64, ptr, ptr, %struct.uv_stat_t, ptr, i32, i32, i32, i32, ptr, i64, i32, i32, double, double, %struct.uv__work, [4 x %struct.uv_buf_t] }
%struct.uv_stat_t = type { i64, i64, i64, i64, i64, i64, i64, i64, i64, i64, i64, i64, %struct.uv_timespec_t, %struct.uv_timespec_t, %struct.uv_timespec_t, %struct.uv_timespec_t }
%struct.uv_timespec_t = type { i64, i64 }
%struct.uv__work = type { ptr, ptr, ptr, %struct.uv__queue }
%struct.uv_buf_t = type { ptr, i64 }
%"class.std::queue" = type { %"class.std::deque" }
%"class.std::deque" = type { %"class.std::_Deque_base" }
%"class.std::_Deque_base" = type { %"struct.std::_Deque_base<node::tracing::NodeTraceWriter::WriteRequest, std::allocator<node::tracing::NodeTraceWriter::WriteRequest>>::_Deque_impl" }
%"struct.std::_Deque_base<node::tracing::NodeTraceWriter::WriteRequest, std::allocator<node::tracing::NodeTraceWriter::WriteRequest>>::_Deque_impl" = type { %"struct.std::_Deque_base<node::tracing::NodeTraceWriter::WriteRequest, std::allocator<node::tracing::NodeTraceWriter::WriteRequest>>::_Deque_impl_data" }
%"struct.std::_Deque_base<node::tracing::NodeTraceWriter::WriteRequest, std::allocator<node::tracing::NodeTraceWriter::WriteRequest>>::_Deque_impl_data" = type { ptr, i64, %"struct.std::_Deque_iterator", %"struct.std::_Deque_iterator" }
%"struct.std::_Deque_iterator" = type { ptr, ptr, ptr, ptr }
%"class.std::__cxx11::basic_string" = type { %"struct.std::__cxx11::basic_string<char>::_Alloc_hider", i64, %union.anon.3 }
%"struct.std::__cxx11::basic_string<char>::_Alloc_hider" = type { ptr }
%union.anon.3 = type { i64, [8 x i8] }
%"class.std::__cxx11::basic_ostringstream" = type { %"class.std::basic_ostream.base", %"class.std::__cxx11::basic_stringbuf", %"class.std::basic_ios" }
%"class.std::basic_ostream.base" = type { ptr }
%"class.std::__cxx11::basic_stringbuf" = type { %"class.std::basic_streambuf", i32, %"class.std::__cxx11::basic_string" }
%"class.std::basic_streambuf" = type { ptr, ptr, ptr, ptr, ptr, ptr, ptr, %"class.std::locale" }
%"class.std::locale" = type { ptr }
%"class.std::basic_ios" = type { %"class.std::ios_base", ptr, i8, i8, ptr, ptr, ptr, ptr }
%"class.std::ios_base" = type { ptr, i64, i64, i32, i32, i32, ptr, %"struct.std::ios_base::_Words", [8 x %"struct.std::ios_base::_Words"], i32, ptr, %"class.std::locale" }
%"struct.std::ios_base::_Words" = type { ptr, i64 }
%"class.std::unique_ptr" = type { %"struct.std::__uniq_ptr_data" }
%"struct.std::__uniq_ptr_data" = type { %"class.std::__uniq_ptr_impl" }
%"class.std::__uniq_ptr_impl" = type { %"class.std::tuple" }
%"class.std::tuple" = type { %"struct.std::_Tuple_impl" }
%"struct.std::_Tuple_impl" = type { %"struct.std::_Head_base.5" }
%"struct.std::_Head_base.5" = type { ptr }
%class.anon = type { i8 }

@_ZZN4node7tracing15NodeTraceWriter18InitializeOnThreadEP9uv_loop_sE4args = internal constant %"struct.node::AssertionInfo" { ptr @.str, ptr @.str.1, ptr @.str.2 }, align 8
@_ZZN4node7tracing15NodeTraceWriter18InitializeOnThreadEP9uv_loop_sE4args_0 = internal constant %"struct.node::AssertionInfo" { ptr @.str.3, ptr @.str.4, ptr @.str.2 }, align 8
@_ZZN4node7tracing15NodeTraceWriter18InitializeOnThreadEP9uv_loop_sE4args_1 = internal constant %"struct.node::AssertionInfo" { ptr @.str.5, ptr @.str.4, ptr @.str.2 }, align 8

; Function Attrs: mustprogress nounwind uwtable
define internal noundef ptr @"_ZZN4node7tracing15NodeTraceWriter18InitializeOnThreadEP9uv_loop_sENK3$_0cvPFvP10uv_async_sEEv"(ptr noundef nonnull align 1 dereferenceable(1) %this) #0 align 2 {
entry:
  %this.addr = alloca ptr, align 8
  store ptr %this, ptr %this.addr, align 8
  ret ptr @"_ZZN4node7tracing15NodeTraceWriter18InitializeOnThreadEP9uv_loop_sEN3$_08__invokeEP10uv_async_s"
}

; Function Attrs: mustprogress nounwind uwtable
define dso_local void @_ZN4node7tracing15NodeTraceWriter18InitializeOnThreadEP9uv_loop_s(ptr noundef nonnull align 8 dereferenceable(1409) %this, ptr noundef %loop) unnamed_addr #0 align 2 {
entry:
  %this.addr = alloca ptr, align 8
  %loop.addr = alloca ptr, align 8
  %err = alloca i32, align 4
  %ref.tmp = alloca %class.anon, align 1
  store ptr %this, ptr %this.addr, align 8
  store ptr %loop, ptr %loop.addr, align 8
  %this1 = load ptr, ptr %this.addr, align 8
  br label %do.body

do.body:                                          ; preds = %entry
  %tracing_loop_ = getelementptr inbounds %"class.node::tracing::NodeTraceWriter", ptr %this1, i32 0, i32 1
  %0 = load ptr, ptr %tracing_loop_, align 8
  %cmp = icmp eq ptr %0, null
  %lnot = xor i1 %cmp, true
  %lnot2 = xor i1 %lnot, true
  %lnot3 = xor i1 %lnot2, true
  br i1 %lnot3, label %if.then, label %if.end

if.then:                                          ; preds = %do.body
  br label %do.body4

do.body4:                                         ; preds = %if.then
  call void @_ZN4node6AssertERKNS_13AssertionInfoE(ptr noundef nonnull align 8 dereferenceable(24) @_ZZN4node7tracing15NodeTraceWriter18InitializeOnThreadEP9uv_loop_sE4args)
  call void @abort() #11
  unreachable

do.end:                                           ; No predecessors!
  br label %if.end

if.end:                                           ; preds = %do.end, %do.body
  br label %do.end5

do.end5:                                          ; preds = %if.end
  %1 = load ptr, ptr %loop.addr, align 8
  %tracing_loop_6 = getelementptr inbounds %"class.node::tracing::NodeTraceWriter", ptr %this1, i32 0, i32 1
  store ptr %1, ptr %tracing_loop_6, align 8
  %flush_signal_ = getelementptr inbounds %"class.node::tracing::NodeTraceWriter", ptr %this1, i32 0, i32 2
  %data = getelementptr inbounds %struct.uv_async_s, ptr %flush_signal_, i32 0, i32 0
  store ptr %this1, ptr %data, align 8
  %tracing_loop_7 = getelementptr inbounds %"class.node::tracing::NodeTraceWriter", ptr %this1, i32 0, i32 1
  %2 = load ptr, ptr %tracing_loop_7, align 8
  %flush_signal_8 = getelementptr inbounds %"class.node::tracing::NodeTraceWriter", ptr %this1, i32 0, i32 2
  %call = call noundef ptr @"_ZZN4node7tracing15NodeTraceWriter18InitializeOnThreadEP9uv_loop_sENK3$_0cvPFvP10uv_async_sEEv"(ptr noundef nonnull align 1 dereferenceable(1) %ref.tmp) #10
  %call9 = call i32 @uv_async_init(ptr noundef %2, ptr noundef %flush_signal_8, ptr noundef %call)
  store i32 %call9, ptr %err, align 4
  br label %do.body10

do.body10:                                        ; preds = %do.end5
  %3 = load i32, ptr %err, align 4
  %cmp11 = icmp eq i32 %3, 0
  %lnot12 = xor i1 %cmp11, true
  %lnot13 = xor i1 %lnot12, true
  %lnot14 = xor i1 %lnot13, true
  br i1 %lnot14, label %if.then15, label %if.end18

if.then15:                                        ; preds = %do.body10
  br label %do.body16

do.body16:                                        ; preds = %if.then15
  call void @_ZN4node6AssertERKNS_13AssertionInfoE(ptr noundef nonnull align 8 dereferenceable(24) @_ZZN4node7tracing15NodeTraceWriter18InitializeOnThreadEP9uv_loop_sE4args_0)
  call void @abort() #11
  unreachable

do.end17:                                         ; No predecessors!
  br label %if.end18

if.end18:                                         ; preds = %do.end17, %do.body10
  br label %do.end19

do.end19:                                         ; preds = %if.end18
  %exit_signal_ = getelementptr inbounds %"class.node::tracing::NodeTraceWriter", ptr %this1, i32 0, i32 3
  %data20 = getelementptr inbounds %struct.uv_async_s, ptr %exit_signal_, i32 0, i32 0
  store ptr %this1, ptr %data20, align 8
  %tracing_loop_21 = getelementptr inbounds %"class.node::tracing::NodeTraceWriter", ptr %this1, i32 0, i32 1
  %4 = load ptr, ptr %tracing_loop_21, align 8
  %exit_signal_22 = getelementptr inbounds %"class.node::tracing::NodeTraceWriter", ptr %this1, i32 0, i32 3
  %call23 = call i32 @uv_async_init(ptr noundef %4, ptr noundef %exit_signal_22, ptr noundef @_ZN4node7tracing15NodeTraceWriter12ExitSignalCbEP10uv_async_s)
  store i32 %call23, ptr %err, align 4
  br label %do.body24

do.body24:                                        ; preds = %do.end19
  %5 = load i32, ptr %err, align 4
  %cmp25 = icmp eq i32 %5, 0
  %lnot26 = xor i1 %cmp25, true
  %lnot27 = xor i1 %lnot26, true
  %lnot28 = xor i1 %lnot27, true
  br i1 %lnot28, label %if.then29, label %if.end32

if.then29:                                        ; preds = %do.body24
  br label %do.body30

do.body30:                                        ; preds = %if.then29
  call void @_ZN4node6AssertERKNS_13AssertionInfoE(ptr noundef nonnull align 8 dereferenceable(24) @_ZZN4node7tracing15NodeTraceWriter18InitializeOnThreadEP9uv_loop_sE4args_1)
  call void @abort() #11
  unreachable

do.end31:                                         ; No predecessors!
  br label %if.end32

if.end32:                                         ; preds = %do.end31, %do.body24
  br label %do.end33

do.end33:                                         ; preds = %if.end32
  ret void
}