; Function Attrs: mustprogress nounwind uwtable
define dso_local void @_ZN4node7tracing15NodeTraceWriter18InitializeOnThreadEP9uv_loop_s(ptr noundef nonnull align 8 dereferenceable(1409) %this, ptr noundef %loop) unnamed_addr #0 align 2 {
entry:
  %tracing_loop_ = getelementptr inbounds i8, ptr %this, i64 8
  %0 = load ptr, ptr %tracing_loop_, align 8
  %cmp.not = icmp eq ptr %0, null
  br i1 %cmp.not, label %do.end5, label %do.body4

do.body4:                                         ; preds = %entry
  tail call void @_ZN4node6AssertERKNS_13AssertionInfoE(ptr noundef nonnull align 8 dereferenceable(24) @_ZZN4node7tracing15NodeTraceWriter18InitializeOnThreadEP9uv_loop_sE4args) #12
  tail call void @abort() #13
  unreachable

do.end5:                                          ; preds = %entry
  store ptr %loop, ptr %tracing_loop_, align 8
  %flush_signal_ = getelementptr inbounds i8, ptr %this, i64 16
  store ptr %this, ptr %flush_signal_, align 8
  %call9 = tail call i32 @uv_async_init(ptr noundef %loop, ptr noundef nonnull %flush_signal_, ptr noundef nonnull @"_ZZN4node7tracing15NodeTraceWriter18InitializeOnThreadEP9uv_loop_sEN3$_08__invokeEP10uv_async_s") #12
  %cmp11.not = icmp eq i32 %call9, 0
  br i1 %cmp11.not, label %do.end19, label %do.body16

do.body16:                                        ; preds = %do.end5
  tail call void @_ZN4node6AssertERKNS_13AssertionInfoE(ptr noundef nonnull align 8 dereferenceable(24) @_ZZN4node7tracing15NodeTraceWriter18InitializeOnThreadEP9uv_loop_sE4args_0) #12
  tail call void @abort() #13
  unreachable

do.end19:                                         ; preds = %do.end5
  %exit_signal_ = getelementptr inbounds i8, ptr %this, i64 144
  store ptr %this, ptr %exit_signal_, align 8
  %1 = load ptr, ptr %tracing_loop_, align 8
  %call23 = tail call i32 @uv_async_init(ptr noundef %1, ptr noundef nonnull %exit_signal_, ptr noundef nonnull @_ZN4node7tracing15NodeTraceWriter12ExitSignalCbEP10uv_async_s) #12
  %cmp25.not = icmp eq i32 %call23, 0
  br i1 %cmp25.not, label %do.end33, label %do.body30

do.body30:                                        ; preds = %do.end19
  tail call void @_ZN4node6AssertERKNS_13AssertionInfoE(ptr noundef nonnull align 8 dereferenceable(24) @_ZZN4node7tracing15NodeTraceWriter18InitializeOnThreadEP9uv_loop_sE4args_1) #12
  tail call void @abort() #13
  unreachable

do.end33:                                         ; preds = %do.end19
  ret void
}